BFD header file version (GNU Binutils for Debian) 2.42
elf64-x86-64
 (header little endian, data little endian)
  i386
elf32-i386
 (header little endian, data little endian)
  i386
elf32-iamcu
 (header little endian, data little endian)
  iamcu
elf32-x86-64
 (header little endian, data little endian)
  i386
pei-i386
 (header little endian, data little endian)
  i386
pe-x86-64
 (header little endian, data little endian)
  i386
pei-x86-64
 (header little endian, data little endian)
  i386
elf64-little
 (header little endian, data little endian)
  i386
  iamcu
elf64-big
 (header big endian, data big endian)
  i386
  iamcu
elf32-little
 (header little endian, data little endian)
  i386
  iamcu
elf32-big
 (header big endian, data big endian)
  i386
  iamcu
pe-bigobj-x86-64
 (header little endian, data little endian)
  i386
pe-i386
 (header little endian, data little endian)
  i386
pdb
 (header little endian, data little endian)
srec
 (header endianness unknown, data endianness unknown)
  i386
  iamcu
symbolsrec
 (header endianness unknown, data endianness unknown)
  i386
  iamcu
verilog
 (header endianness unknown, data endianness unknown)
  i386
  iamcu
tekhex
 (header endianness unknown, data endianness unknown)
  i386
  iamcu
binary
 (header endianness unknown, data endianness unknown)
  i386
  iamcu
ihex
 (header endianness unknown, data endianness unknown)
  i386
  iamcu
plugin
 (header little endian, data little endian)

         elf64-x86-64 elf32-i386 elf32-iamcu elf32-x86-64 pei-i386 pe-x86-64 
    i386 elf64-x86-64 elf32-i386 ----------- elf32-x86-64 pei-i386 pe-x86-64
   iamcu ------------ ---------- elf32-iamcu ------------ -------- ---------

         pei-x86-64 elf64-little elf64-big elf32-little elf32-big 
    i386 pei-x86-64 elf64-little elf64-big elf32-little elf32-big
   iamcu ---------- elf64-little elf64-big elf32-little elf32-big

         pe-bigobj-x86-64 pe-i386 pdb srec symbolsrec verilog tekhex binary 
    i386 pe-bigobj-x86-64 pe-i386 --- srec symbolsrec verilog tekhex binary
   iamcu ---------------- ------- --- srec symbolsrec verilog tekhex binary

         ihex plugin 
    i386 ihex ------
   iamcu ihex ------

batcomputer:     file format elf64-x86-64


Disassembly of section .init:

0000000000001000 <.init>:
    1000:	f3 0f 1e fa          	endbr64
    1004:	48 83 ec 08          	sub    $0x8,%rsp
    1008:	48 8b 05 d9 2f 00 00 	mov    0x2fd9(%rip),%rax        # 3fe8 <exit@plt+0x2f48>
    100f:	48 85 c0             	test   %rax,%rax
    1012:	74 02                	je     1016 <puts@plt-0x1a>
    1014:	ff d0                	call   *%rax
    1016:	48 83 c4 08          	add    $0x8,%rsp
    101a:	c3                   	ret

Disassembly of section .plt:

0000000000001020 <puts@plt-0x10>:
    1020:	ff 35 e2 2f 00 00    	push   0x2fe2(%rip)        # 4008 <exit@plt+0x2f68>
    1026:	ff 25 e4 2f 00 00    	jmp    *0x2fe4(%rip)        # 4010 <exit@plt+0x2f70>
    102c:	0f 1f 40 00          	nopl   0x0(%rax)

0000000000001030 <puts@plt>:
    1030:	ff 25 e2 2f 00 00    	jmp    *0x2fe2(%rip)        # 4018 <exit@plt+0x2f78>
    1036:	68 00 00 00 00       	push   $0x0
    103b:	e9 e0 ff ff ff       	jmp    1020 <puts@plt-0x10>

0000000000001040 <printf@plt>:
    1040:	ff 25 da 2f 00 00    	jmp    *0x2fda(%rip)        # 4020 <exit@plt+0x2f80>
    1046:	68 01 00 00 00       	push   $0x1
    104b:	e9 d0 ff ff ff       	jmp    1020 <puts@plt-0x10>

0000000000001050 <memset@plt>:
    1050:	ff 25 d2 2f 00 00    	jmp    *0x2fd2(%rip)        # 4028 <exit@plt+0x2f88>
    1056:	68 02 00 00 00       	push   $0x2
    105b:	e9 c0 ff ff ff       	jmp    1020 <puts@plt-0x10>

0000000000001060 <read@plt>:
    1060:	ff 25 ca 2f 00 00    	jmp    *0x2fca(%rip)        # 4030 <exit@plt+0x2f90>
    1066:	68 03 00 00 00       	push   $0x3
    106b:	e9 b0 ff ff ff       	jmp    1020 <puts@plt-0x10>

0000000000001070 <strcmp@plt>:
    1070:	ff 25 c2 2f 00 00    	jmp    *0x2fc2(%rip)        # 4038 <exit@plt+0x2f98>
    1076:	68 04 00 00 00       	push   $0x4
    107b:	e9 a0 ff ff ff       	jmp    1020 <puts@plt-0x10>

0000000000001080 <setvbuf@plt>:
    1080:	ff 25 ba 2f 00 00    	jmp    *0x2fba(%rip)        # 4040 <exit@plt+0x2fa0>
    1086:	68 05 00 00 00       	push   $0x5
    108b:	e9 90 ff ff ff       	jmp    1020 <puts@plt-0x10>

0000000000001090 <__isoc99_scanf@plt>:
    1090:	ff 25 b2 2f 00 00    	jmp    *0x2fb2(%rip)        # 4048 <exit@plt+0x2fa8>
    1096:	68 06 00 00 00       	push   $0x6
    109b:	e9 80 ff ff ff       	jmp    1020 <puts@plt-0x10>

00000000000010a0 <exit@plt>:
    10a0:	ff 25 aa 2f 00 00    	jmp    *0x2faa(%rip)        # 4050 <exit@plt+0x2fb0>
    10a6:	68 07 00 00 00       	push   $0x7
    10ab:	e9 70 ff ff ff       	jmp    1020 <puts@plt-0x10>

Disassembly of section .text:

00000000000010b0 <.text>:
    10b0:	f3 0f 1e fa          	endbr64
    10b4:	31 ed                	xor    %ebp,%ebp
    10b6:	49 89 d1             	mov    %rdx,%r9
    10b9:	5e                   	pop    %rsi
    10ba:	48 89 e2             	mov    %rsp,%rdx
    10bd:	48 83 e4 f0          	and    $0xfffffffffffffff0,%rsp
    10c1:	50                   	push   %rax
    10c2:	54                   	push   %rsp
    10c3:	4c 8d 05 c6 02 00 00 	lea    0x2c6(%rip),%r8        # 1390 <exit@plt+0x2f0>
    10ca:	48 8d 0d 4f 02 00 00 	lea    0x24f(%rip),%rcx        # 1320 <exit@plt+0x280>
    10d1:	48 8d 3d 14 01 00 00 	lea    0x114(%rip),%rdi        # 11ec <exit@plt+0x14c>
    10d8:	ff 15 02 2f 00 00    	call   *0x2f02(%rip)        # 3fe0 <exit@plt+0x2f40>
    10de:	f4                   	hlt
    10df:	90                   	nop
    10e0:	48 8d 3d 81 2f 00 00 	lea    0x2f81(%rip),%rdi        # 4068 <exit@plt+0x2fc8>
    10e7:	48 8d 05 7a 2f 00 00 	lea    0x2f7a(%rip),%rax        # 4068 <exit@plt+0x2fc8>
    10ee:	48 39 f8             	cmp    %rdi,%rax
    10f1:	74 15                	je     1108 <exit@plt+0x68>
    10f3:	48 8b 05 de 2e 00 00 	mov    0x2ede(%rip),%rax        # 3fd8 <exit@plt+0x2f38>
    10fa:	48 85 c0             	test   %rax,%rax
    10fd:	74 09                	je     1108 <exit@plt+0x68>
    10ff:	ff e0                	jmp    *%rax
    1101:	0f 1f 80 00 00 00 00 	nopl   0x0(%rax)
    1108:	c3                   	ret
    1109:	0f 1f 80 00 00 00 00 	nopl   0x0(%rax)
    1110:	48 8d 3d 51 2f 00 00 	lea    0x2f51(%rip),%rdi        # 4068 <exit@plt+0x2fc8>
    1117:	48 8d 35 4a 2f 00 00 	lea    0x2f4a(%rip),%rsi        # 4068 <exit@plt+0x2fc8>
    111e:	48 29 fe             	sub    %rdi,%rsi
    1121:	48 89 f0             	mov    %rsi,%rax
    1124:	48 c1 ee 3f          	shr    $0x3f,%rsi
    1128:	48 c1 f8 03          	sar    $0x3,%rax
    112c:	48 01 c6             	add    %rax,%rsi
    112f:	48 d1 fe             	sar    $1,%rsi
    1132:	74 14                	je     1148 <exit@plt+0xa8>
    1134:	48 8b 05 b5 2e 00 00 	mov    0x2eb5(%rip),%rax        # 3ff0 <exit@plt+0x2f50>
    113b:	48 85 c0             	test   %rax,%rax
    113e:	74 08                	je     1148 <exit@plt+0xa8>
    1140:	ff e0                	jmp    *%rax
    1142:	66 0f 1f 44 00 00    	nopw   0x0(%rax,%rax,1)
    1148:	c3                   	ret
    1149:	0f 1f 80 00 00 00 00 	nopl   0x0(%rax)
    1150:	f3 0f 1e fa          	endbr64
    1154:	80 3d 2d 2f 00 00 00 	cmpb   $0x0,0x2f2d(%rip)        # 4088 <stdin@GLIBC_2.2.5+0x8>
    115b:	75 33                	jne    1190 <exit@plt+0xf0>
    115d:	55                   	push   %rbp
    115e:	48 83 3d 92 2e 00 00 	cmpq   $0x0,0x2e92(%rip)        # 3ff8 <exit@plt+0x2f58>
    1165:	00 
    1166:	48 89 e5             	mov    %rsp,%rbp
    1169:	74 0d                	je     1178 <exit@plt+0xd8>
    116b:	48 8b 3d ee 2e 00 00 	mov    0x2eee(%rip),%rdi        # 4060 <exit@plt+0x2fc0>
    1172:	ff 15 80 2e 00 00    	call   *0x2e80(%rip)        # 3ff8 <exit@plt+0x2f58>
    1178:	e8 63 ff ff ff       	call   10e0 <exit@plt+0x40>
    117d:	c6 05 04 2f 00 00 01 	movb   $0x1,0x2f04(%rip)        # 4088 <stdin@GLIBC_2.2.5+0x8>
    1184:	5d                   	pop    %rbp
    1185:	c3                   	ret
    1186:	66 2e 0f 1f 84 00 00 	cs nopw 0x0(%rax,%rax,1)
    118d:	00 00 00 
    1190:	c3                   	ret
    1191:	66 66 2e 0f 1f 84 00 	data16 cs nopw 0x0(%rax,%rax,1)
    1198:	00 00 00 00 
    119c:	0f 1f 40 00          	nopl   0x0(%rax)
    11a0:	f3 0f 1e fa          	endbr64
    11a4:	e9 67 ff ff ff       	jmp    1110 <exit@plt+0x70>
    11a9:	55                   	push   %rbp
    11aa:	48 89 e5             	mov    %rsp,%rbp
    11ad:	48 8b 05 cc 2e 00 00 	mov    0x2ecc(%rip),%rax        # 4080 <stdin@GLIBC_2.2.5>
    11b4:	b9 00 00 00 00       	mov    $0x0,%ecx
    11b9:	ba 02 00 00 00       	mov    $0x2,%edx
    11be:	be 00 00 00 00       	mov    $0x0,%esi
    11c3:	48 89 c7             	mov    %rax,%rdi
    11c6:	e8 b5 fe ff ff       	call   1080 <setvbuf@plt>
    11cb:	48 8b 05 9e 2e 00 00 	mov    0x2e9e(%rip),%rax        # 4070 <stdout@GLIBC_2.2.5>
    11d2:	b9 00 00 00 00       	mov    $0x0,%ecx
    11d7:	ba 02 00 00 00       	mov    $0x2,%edx
    11dc:	be 00 00 00 00       	mov    $0x0,%esi
    11e1:	48 89 c7             	mov    %rax,%rdi
    11e4:	e8 97 fe ff ff       	call   1080 <setvbuf@plt>
    11e9:	90                   	nop
    11ea:	5d                   	pop    %rbp
    11eb:	c3                   	ret
    11ec:	55                   	push   %rbp
    11ed:	48 89 e5             	mov    %rsp,%rbp
    11f0:	48 83 ec 60          	sub    $0x60,%rsp
    11f4:	b8 00 00 00 00       	mov    $0x0,%eax
    11f9:	e8 ab ff ff ff       	call   11a9 <exit@plt+0x109>
    11fe:	48 8d 45 a0          	lea    -0x60(%rbp),%rax
    1202:	48 83 c0 04          	add    $0x4,%rax
    1206:	ba 10 00 00 00       	mov    $0x10,%edx
    120b:	be 00 00 00 00       	mov    $0x0,%esi
    1210:	48 89 c7             	mov    %rax,%rdi
    1213:	e8 38 fe ff ff       	call   1050 <memset@plt>
    1218:	48 8d 3d e9 0d 00 00 	lea    0xde9(%rip),%rdi        # 2008 <exit@plt+0xf68>
    121f:	b8 00 00 00 00       	mov    $0x0,%eax
    1224:	e8 17 fe ff ff       	call   1040 <printf@plt>
    1229:	48 8d 45 a0          	lea    -0x60(%rbp),%rax
    122d:	48 89 c6             	mov    %rax,%rsi
    1230:	48 8d 3d 32 0e 00 00 	lea    0xe32(%rip),%rdi        # 2069 <exit@plt+0xfc9>
    1237:	b8 00 00 00 00       	mov    $0x0,%eax
    123c:	e8 4f fe ff ff       	call   1090 <__isoc99_scanf@plt>
    1241:	8b 45 a0             	mov    -0x60(%rbp),%eax
    1244:	83 f8 01             	cmp    $0x1,%eax
    1247:	75 1e                	jne    1267 <exit@plt+0x1c7>
    1249:	48 8d 45 a0          	lea    -0x60(%rbp),%rax
    124d:	48 83 c0 14          	add    $0x14,%rax
    1251:	48 89 c6             	mov    %rax,%rsi
    1254:	48 8d 3d 15 0e 00 00 	lea    0xe15(%rip),%rdi        # 2070 <exit@plt+0xfd0>
    125b:	b8 00 00 00 00       	mov    $0x0,%eax
    1260:	e8 db fd ff ff       	call   1040 <printf@plt>
    1265:	eb 97                	jmp    11fe <exit@plt+0x15e>
    1267:	8b 45 a0             	mov    -0x60(%rbp),%eax
    126a:	83 f8 02             	cmp    $0x2,%eax
    126d:	0f 85 9a 00 00 00    	jne    130d <exit@plt+0x26d>
    1273:	48 8d 3d 2e 0e 00 00 	lea    0xe2e(%rip),%rdi        # 20a8 <exit@plt+0x1008>
    127a:	b8 00 00 00 00       	mov    $0x0,%eax
    127f:	e8 bc fd ff ff       	call   1040 <printf@plt>
    1284:	48 8d 45 a0          	lea    -0x60(%rbp),%rax
    1288:	48 83 c0 04          	add    $0x4,%rax
    128c:	48 89 c6             	mov    %rax,%rsi
    128f:	48 8d 3d 3a 0e 00 00 	lea    0xe3a(%rip),%rdi        # 20d0 <exit@plt+0x1030>
    1296:	b8 00 00 00 00       	mov    $0x0,%eax
    129b:	e8 f0 fd ff ff       	call   1090 <__isoc99_scanf@plt>
    12a0:	48 8d 45 a0          	lea    -0x60(%rbp),%rax
    12a4:	48 83 c0 04          	add    $0x4,%rax
    12a8:	48 8d 35 26 0e 00 00 	lea    0xe26(%rip),%rsi        # 20d5 <exit@plt+0x1035>
    12af:	48 89 c7             	mov    %rax,%rdi
    12b2:	e8 b9 fd ff ff       	call   1070 <strcmp@plt>
    12b7:	85 c0                	test   %eax,%eax
    12b9:	74 16                	je     12d1 <exit@plt+0x231>
    12bb:	48 8d 3d 26 0e 00 00 	lea    0xe26(%rip),%rdi        # 20e8 <exit@plt+0x1048>
    12c2:	e8 69 fd ff ff       	call   1030 <puts@plt>
    12c7:	bf 00 00 00 00       	mov    $0x0,%edi
    12cc:	e8 cf fd ff ff       	call   10a0 <exit@plt>
    12d1:	48 8d 3d 58 0e 00 00 	lea    0xe58(%rip),%rdi        # 2130 <exit@plt+0x1090>
    12d8:	b8 00 00 00 00       	mov    $0x0,%eax
    12dd:	e8 5e fd ff ff       	call   1040 <printf@plt>
    12e2:	48 8d 45 a0          	lea    -0x60(%rbp),%rax
    12e6:	48 83 c0 14          	add    $0x14,%rax
    12ea:	ba 89 00 00 00       	mov    $0x89,%edx
    12ef:	48 89 c6             	mov    %rax,%rsi
    12f2:	bf 00 00 00 00       	mov    $0x0,%edi
    12f7:	e8 64 fd ff ff       	call   1060 <read@plt>
    12fc:	48 8d 3d 5e 0e 00 00 	lea    0xe5e(%rip),%rdi        # 2161 <exit@plt+0x10c1>
    1303:	e8 28 fd ff ff       	call   1030 <puts@plt>
    1308:	e9 f1 fe ff ff       	jmp    11fe <exit@plt+0x15e>
    130d:	48 8d 3d 5c 0e 00 00 	lea    0xe5c(%rip),%rdi        # 2170 <exit@plt+0x10d0>
    1314:	e8 17 fd ff ff       	call   1030 <puts@plt>
    1319:	b8 00 00 00 00       	mov    $0x0,%eax
    131e:	c9                   	leave
    131f:	c3                   	ret
    1320:	f3 0f 1e fa          	endbr64
    1324:	41 57                	push   %r15
    1326:	4c 8d 3d bb 2a 00 00 	lea    0x2abb(%rip),%r15        # 3de8 <exit@plt+0x2d48>
    132d:	41 56                	push   %r14
    132f:	49 89 d6             	mov    %rdx,%r14
    1332:	41 55                	push   %r13
    1334:	49 89 f5             	mov    %rsi,%r13
    1337:	41 54                	push   %r12
    1339:	41 89 fc             	mov    %edi,%r12d
    133c:	55                   	push   %rbp
    133d:	48 8d 2d ac 2a 00 00 	lea    0x2aac(%rip),%rbp        # 3df0 <exit@plt+0x2d50>
    1344:	53                   	push   %rbx
    1345:	4c 29 fd             	sub    %r15,%rbp
    1348:	48 83 ec 08          	sub    $0x8,%rsp
    134c:	e8 af fc ff ff       	call   1000 <puts@plt-0x30>
    1351:	48 c1 fd 03          	sar    $0x3,%rbp
    1355:	74 1f                	je     1376 <exit@plt+0x2d6>
    1357:	31 db                	xor    %ebx,%ebx
    1359:	0f 1f 80 00 00 00 00 	nopl   0x0(%rax)
    1360:	4c 89 f2             	mov    %r14,%rdx
    1363:	4c 89 ee             	mov    %r13,%rsi
    1366:	44 89 e7             	mov    %r12d,%edi
    1369:	41 ff 14 df          	call   *(%r15,%rbx,8)
    136d:	48 83 c3 01          	add    $0x1,%rbx
    1371:	48 39 dd             	cmp    %rbx,%rbp
    1374:	75 ea                	jne    1360 <exit@plt+0x2c0>
    1376:	48 83 c4 08          	add    $0x8,%rsp
    137a:	5b                   	pop    %rbx
    137b:	5d                   	pop    %rbp
    137c:	41 5c                	pop    %r12
    137e:	41 5d                	pop    %r13
    1380:	41 5e                	pop    %r14
    1382:	41 5f                	pop    %r15
    1384:	c3                   	ret
    1385:	66 66 2e 0f 1f 84 00 	data16 cs nopw 0x0(%rax,%rax,1)
    138c:	00 00 00 00 
    1390:	f3 0f 1e fa          	endbr64
    1394:	c3                   	ret

Disassembly of section .fini:

0000000000001398 <.fini>:
    1398:	f3 0f 1e fa          	endbr64
    139c:	48 83 ec 08          	sub    $0x8,%rsp
    13a0:	48 83 c4 08          	add    $0x8,%rsp
    13a4:	c3                   	ret
