BFD header file version (GNU Binutils for Debian) 2.42
elf64-x86-64
 (header little endian, data little endian)
  i386
elf32-i386
 (header little endian, data little endian)
  i386
elf32-iamcu
 (header little endian, data little endian)
  iamcu
elf32-x86-64
 (header little endian, data little endian)
  i386
pei-i386
 (header little endian, data little endian)
  i386
pe-x86-64
 (header little endian, data little endian)
  i386
pei-x86-64
 (header little endian, data little endian)
  i386
elf64-little
 (header little endian, data little endian)
  i386
  iamcu
elf64-big
 (header big endian, data big endian)
  i386
  iamcu
elf32-little
 (header little endian, data little endian)
  i386
  iamcu
elf32-big
 (header big endian, data big endian)
  i386
  iamcu
pe-bigobj-x86-64
 (header little endian, data little endian)
  i386
pe-i386
 (header little endian, data little endian)
  i386
pdb
 (header little endian, data little endian)
srec
 (header endianness unknown, data endianness unknown)
  i386
  iamcu
symbolsrec
 (header endianness unknown, data endianness unknown)
  i386
  iamcu
verilog
 (header endianness unknown, data endianness unknown)
  i386
  iamcu
tekhex
 (header endianness unknown, data endianness unknown)
  i386
  iamcu
binary
 (header endianness unknown, data endianness unknown)
  i386
  iamcu
ihex
 (header endianness unknown, data endianness unknown)
  i386
  iamcu
plugin
 (header little endian, data little endian)

         elf64-x86-64 elf32-i386 elf32-iamcu elf32-x86-64 pei-i386 pe-x86-64 
    i386 elf64-x86-64 elf32-i386 ----------- elf32-x86-64 pei-i386 pe-x86-64
   iamcu ------------ ---------- elf32-iamcu ------------ -------- ---------

         pei-x86-64 elf64-little elf64-big elf32-little elf32-big 
    i386 pei-x86-64 elf64-little elf64-big elf32-little elf32-big
   iamcu ---------- elf64-little elf64-big elf32-little elf32-big

         pe-bigobj-x86-64 pe-i386 pdb srec symbolsrec verilog tekhex binary 
    i386 pe-bigobj-x86-64 pe-i386 --- srec symbolsrec verilog tekhex binary
   iamcu ---------------- ------- --- srec symbolsrec verilog tekhex binary

         ihex plugin 
    i386 ihex ------
   iamcu ihex ------

reg:     file format elf64-x86-64


Disassembly of section .init:

0000000000401000 <_init>:
  401000:	f3 0f 1e fa          	endbr64
  401004:	48 83 ec 08          	sub    $0x8,%rsp
  401008:	48 8b 05 e1 2f 00 00 	mov    0x2fe1(%rip),%rax        # 403ff0 <__gmon_start__>
  40100f:	48 85 c0             	test   %rax,%rax
  401012:	74 02                	je     401016 <_init+0x16>
  401014:	ff d0                	call   *%rax
  401016:	48 83 c4 08          	add    $0x8,%rsp
  40101a:	c3                   	ret

Disassembly of section .plt:

0000000000401020 <.plt>:
  401020:	ff 35 e2 2f 00 00    	push   0x2fe2(%rip)        # 404008 <_GLOBAL_OFFSET_TABLE_+0x8>
  401026:	ff 25 e4 2f 00 00    	jmp    *0x2fe4(%rip)        # 404010 <_GLOBAL_OFFSET_TABLE_+0x10>
  40102c:	0f 1f 40 00          	nopl   0x0(%rax)

0000000000401030 <puts@plt>:
  401030:	ff 25 e2 2f 00 00    	jmp    *0x2fe2(%rip)        # 404018 <puts@GLIBC_2.2.5>
  401036:	68 00 00 00 00       	push   $0x0
  40103b:	e9 e0 ff ff ff       	jmp    401020 <.plt>

0000000000401040 <fclose@plt>:
  401040:	ff 25 da 2f 00 00    	jmp    *0x2fda(%rip)        # 404020 <fclose@GLIBC_2.2.5>
  401046:	68 01 00 00 00       	push   $0x1
  40104b:	e9 d0 ff ff ff       	jmp    401020 <.plt>

0000000000401050 <printf@plt>:
  401050:	ff 25 d2 2f 00 00    	jmp    *0x2fd2(%rip)        # 404028 <printf@GLIBC_2.2.5>
  401056:	68 02 00 00 00       	push   $0x2
  40105b:	e9 c0 ff ff ff       	jmp    401020 <.plt>

0000000000401060 <alarm@plt>:
  401060:	ff 25 ca 2f 00 00    	jmp    *0x2fca(%rip)        # 404030 <alarm@GLIBC_2.2.5>
  401066:	68 03 00 00 00       	push   $0x3
  40106b:	e9 b0 ff ff ff       	jmp    401020 <.plt>

0000000000401070 <fgets@plt>:
  401070:	ff 25 c2 2f 00 00    	jmp    *0x2fc2(%rip)        # 404038 <fgets@GLIBC_2.2.5>
  401076:	68 04 00 00 00       	push   $0x4
  40107b:	e9 a0 ff ff ff       	jmp    401020 <.plt>

0000000000401080 <gets@plt>:
  401080:	ff 25 ba 2f 00 00    	jmp    *0x2fba(%rip)        # 404040 <gets@GLIBC_2.2.5>
  401086:	68 05 00 00 00       	push   $0x5
  40108b:	e9 90 ff ff ff       	jmp    401020 <.plt>

0000000000401090 <setvbuf@plt>:
  401090:	ff 25 b2 2f 00 00    	jmp    *0x2fb2(%rip)        # 404048 <setvbuf@GLIBC_2.2.5>
  401096:	68 06 00 00 00       	push   $0x6
  40109b:	e9 80 ff ff ff       	jmp    401020 <.plt>

00000000004010a0 <fopen@plt>:
  4010a0:	ff 25 aa 2f 00 00    	jmp    *0x2faa(%rip)        # 404050 <fopen@GLIBC_2.2.5>
  4010a6:	68 07 00 00 00       	push   $0x7
  4010ab:	e9 70 ff ff ff       	jmp    401020 <.plt>

Disassembly of section .text:

00000000004010b0 <_start>:
  4010b0:	f3 0f 1e fa          	endbr64
  4010b4:	31 ed                	xor    %ebp,%ebp
  4010b6:	49 89 d1             	mov    %rdx,%r9
  4010b9:	5e                   	pop    %rsi
  4010ba:	48 89 e2             	mov    %rsp,%rdx
  4010bd:	48 83 e4 f0          	and    $0xfffffffffffffff0,%rsp
  4010c1:	50                   	push   %rax
  4010c2:	54                   	push   %rsp
  4010c3:	49 c7 c0 40 13 40 00 	mov    $0x401340,%r8
  4010ca:	48 c7 c1 d0 12 40 00 	mov    $0x4012d0,%rcx
  4010d1:	48 c7 c7 ad 12 40 00 	mov    $0x4012ad,%rdi
  4010d8:	ff 15 0a 2f 00 00    	call   *0x2f0a(%rip)        # 403fe8 <__libc_start_main@GLIBC_2.2.5>
  4010de:	f4                   	hlt
  4010df:	90                   	nop

00000000004010e0 <_dl_relocate_static_pie>:
  4010e0:	f3 0f 1e fa          	endbr64
  4010e4:	c3                   	ret
  4010e5:	66 2e 0f 1f 84 00 00 	cs nopw 0x0(%rax,%rax,1)
  4010ec:	00 00 00 
  4010ef:	90                   	nop

00000000004010f0 <deregister_tm_clones>:
  4010f0:	b8 68 40 40 00       	mov    $0x404068,%eax
  4010f5:	48 3d 68 40 40 00    	cmp    $0x404068,%rax
  4010fb:	74 13                	je     401110 <deregister_tm_clones+0x20>
  4010fd:	48 8b 05 dc 2e 00 00 	mov    0x2edc(%rip),%rax        # 403fe0 <_ITM_deregisterTMCloneTable>
  401104:	48 85 c0             	test   %rax,%rax
  401107:	74 07                	je     401110 <deregister_tm_clones+0x20>
  401109:	bf 68 40 40 00       	mov    $0x404068,%edi
  40110e:	ff e0                	jmp    *%rax
  401110:	c3                   	ret
  401111:	66 66 2e 0f 1f 84 00 	data16 cs nopw 0x0(%rax,%rax,1)
  401118:	00 00 00 00 
  40111c:	0f 1f 40 00          	nopl   0x0(%rax)

0000000000401120 <register_tm_clones>:
  401120:	be 68 40 40 00       	mov    $0x404068,%esi
  401125:	48 81 ee 68 40 40 00 	sub    $0x404068,%rsi
  40112c:	48 89 f0             	mov    %rsi,%rax
  40112f:	48 c1 ee 3f          	shr    $0x3f,%rsi
  401133:	48 c1 f8 03          	sar    $0x3,%rax
  401137:	48 01 c6             	add    %rax,%rsi
  40113a:	48 d1 fe             	sar    $1,%rsi
  40113d:	74 19                	je     401158 <register_tm_clones+0x38>
  40113f:	48 8b 05 b2 2e 00 00 	mov    0x2eb2(%rip),%rax        # 403ff8 <_ITM_registerTMCloneTable>
  401146:	48 85 c0             	test   %rax,%rax
  401149:	74 0d                	je     401158 <register_tm_clones+0x38>
  40114b:	bf 68 40 40 00       	mov    $0x404068,%edi
  401150:	ff e0                	jmp    *%rax
  401152:	66 0f 1f 44 00 00    	nopw   0x0(%rax,%rax,1)
  401158:	c3                   	ret
  401159:	0f 1f 80 00 00 00 00 	nopl   0x0(%rax)

0000000000401160 <__do_global_dtors_aux>:
  401160:	f3 0f 1e fa          	endbr64
  401164:	80 3d 3d 2f 00 00 00 	cmpb   $0x0,0x2f3d(%rip)        # 4040a8 <completed.0>
  40116b:	75 13                	jne    401180 <__do_global_dtors_aux+0x20>
  40116d:	55                   	push   %rbp
  40116e:	48 89 e5             	mov    %rsp,%rbp
  401171:	e8 7a ff ff ff       	call   4010f0 <deregister_tm_clones>
  401176:	c6 05 2b 2f 00 00 01 	movb   $0x1,0x2f2b(%rip)        # 4040a8 <completed.0>
  40117d:	5d                   	pop    %rbp
  40117e:	c3                   	ret
  40117f:	90                   	nop
  401180:	c3                   	ret
  401181:	66 66 2e 0f 1f 84 00 	data16 cs nopw 0x0(%rax,%rax,1)
  401188:	00 00 00 00 
  40118c:	0f 1f 40 00          	nopl   0x0(%rax)

0000000000401190 <frame_dummy>:
  401190:	f3 0f 1e fa          	endbr64
  401194:	eb 8a                	jmp    401120 <register_tm_clones>

0000000000401196 <initialize>:
  401196:	55                   	push   %rbp
  401197:	48 89 e5             	mov    %rsp,%rbp
  40119a:	bf 1e 00 00 00       	mov    $0x1e,%edi
  40119f:	b8 00 00 00 00       	mov    $0x0,%eax
  4011a4:	e8 b7 fe ff ff       	call   401060 <alarm@plt>
  4011a9:	48 8b 05 d0 2e 00 00 	mov    0x2ed0(%rip),%rax        # 404080 <stdout@GLIBC_2.2.5>
  4011b0:	b9 00 00 00 00       	mov    $0x0,%ecx
  4011b5:	ba 02 00 00 00       	mov    $0x2,%edx
  4011ba:	be 00 00 00 00       	mov    $0x0,%esi
  4011bf:	48 89 c7             	mov    %rax,%rdi
  4011c2:	e8 c9 fe ff ff       	call   401090 <setvbuf@plt>
  4011c7:	48 8b 05 d2 2e 00 00 	mov    0x2ed2(%rip),%rax        # 4040a0 <stderr@GLIBC_2.2.5>
  4011ce:	b9 00 00 00 00       	mov    $0x0,%ecx
  4011d3:	ba 02 00 00 00       	mov    $0x2,%edx
  4011d8:	be 00 00 00 00       	mov    $0x0,%esi
  4011dd:	48 89 c7             	mov    %rax,%rdi
  4011e0:	e8 ab fe ff ff       	call   401090 <setvbuf@plt>
  4011e5:	48 8b 05 a4 2e 00 00 	mov    0x2ea4(%rip),%rax        # 404090 <stdin@GLIBC_2.2.5>
  4011ec:	b9 00 00 00 00       	mov    $0x0,%ecx
  4011f1:	ba 02 00 00 00       	mov    $0x2,%edx
  4011f6:	be 00 00 00 00       	mov    $0x0,%esi
  4011fb:	48 89 c7             	mov    %rax,%rdi
  4011fe:	e8 8d fe ff ff       	call   401090 <setvbuf@plt>
  401203:	90                   	nop
  401204:	5d                   	pop    %rbp
  401205:	c3                   	ret

0000000000401206 <winner>:
  401206:	55                   	push   %rbp
  401207:	48 89 e5             	mov    %rsp,%rbp
  40120a:	48 81 ec 10 04 00 00 	sub    $0x410,%rsp
  401211:	48 8d 3d ec 0d 00 00 	lea    0xdec(%rip),%rdi        # 402004 <_IO_stdin_used+0x4>
  401218:	e8 13 fe ff ff       	call   401030 <puts@plt>
  40121d:	48 8d 35 f1 0d 00 00 	lea    0xdf1(%rip),%rsi        # 402015 <_IO_stdin_used+0x15>
  401224:	48 8d 3d ec 0d 00 00 	lea    0xdec(%rip),%rdi        # 402017 <_IO_stdin_used+0x17>
  40122b:	e8 70 fe ff ff       	call   4010a0 <fopen@plt>
  401230:	48 89 45 f8          	mov    %rax,-0x8(%rbp)
  401234:	48 8b 55 f8          	mov    -0x8(%rbp),%rdx
  401238:	48 8d 85 f0 fb ff ff 	lea    -0x410(%rbp),%rax
  40123f:	be 00 04 00 00       	mov    $0x400,%esi
  401244:	48 89 c7             	mov    %rax,%rdi
  401247:	e8 24 fe ff ff       	call   401070 <fgets@plt>
  40124c:	48 8d 85 f0 fb ff ff 	lea    -0x410(%rbp),%rax
  401253:	48 89 c7             	mov    %rax,%rdi
  401256:	e8 d5 fd ff ff       	call   401030 <puts@plt>
  40125b:	48 8b 45 f8          	mov    -0x8(%rbp),%rax
  40125f:	48 89 c7             	mov    %rax,%rdi
  401262:	e8 d9 fd ff ff       	call   401040 <fclose@plt>
  401267:	90                   	nop
  401268:	c9                   	leave
  401269:	c3                   	ret

000000000040126a <run>:
  40126a:	55                   	push   %rbp
  40126b:	48 89 e5             	mov    %rsp,%rbp
  40126e:	48 83 ec 30          	sub    $0x30,%rsp
  401272:	b8 00 00 00 00       	mov    $0x0,%eax
  401277:	e8 1a ff ff ff       	call   401196 <initialize>
  40127c:	48 8d 3d 9d 0d 00 00 	lea    0xd9d(%rip),%rdi        # 402020 <_IO_stdin_used+0x20>
  401283:	b8 00 00 00 00       	mov    $0x0,%eax
  401288:	e8 c3 fd ff ff       	call   401050 <printf@plt>
  40128d:	48 8d 45 d0          	lea    -0x30(%rbp),%rax
  401291:	48 89 c7             	mov    %rax,%rdi
  401294:	b8 00 00 00 00       	mov    $0x0,%eax
  401299:	e8 e2 fd ff ff       	call   401080 <gets@plt>
  40129e:	48 8d 3d 8e 0d 00 00 	lea    0xd8e(%rip),%rdi        # 402033 <_IO_stdin_used+0x33>
  4012a5:	e8 86 fd ff ff       	call   401030 <puts@plt>
  4012aa:	90                   	nop
  4012ab:	c9                   	leave
  4012ac:	c3                   	ret

00000000004012ad <main>:
  4012ad:	55                   	push   %rbp
  4012ae:	48 89 e5             	mov    %rsp,%rbp
  4012b1:	b8 00 00 00 00       	mov    $0x0,%eax
  4012b6:	e8 af ff ff ff       	call   40126a <run>
  4012bb:	b8 00 00 00 00       	mov    $0x0,%eax
  4012c0:	5d                   	pop    %rbp
  4012c1:	c3                   	ret
  4012c2:	66 2e 0f 1f 84 00 00 	cs nopw 0x0(%rax,%rax,1)
  4012c9:	00 00 00 
  4012cc:	0f 1f 40 00          	nopl   0x0(%rax)

00000000004012d0 <__libc_csu_init>:
  4012d0:	f3 0f 1e fa          	endbr64
  4012d4:	41 57                	push   %r15
  4012d6:	4c 8d 3d 23 2b 00 00 	lea    0x2b23(%rip),%r15        # 403e00 <__frame_dummy_init_array_entry>
  4012dd:	41 56                	push   %r14
  4012df:	49 89 d6             	mov    %rdx,%r14
  4012e2:	41 55                	push   %r13
  4012e4:	49 89 f5             	mov    %rsi,%r13
  4012e7:	41 54                	push   %r12
  4012e9:	41 89 fc             	mov    %edi,%r12d
  4012ec:	55                   	push   %rbp
  4012ed:	48 8d 2d 14 2b 00 00 	lea    0x2b14(%rip),%rbp        # 403e08 <__do_global_dtors_aux_fini_array_entry>
  4012f4:	53                   	push   %rbx
  4012f5:	4c 29 fd             	sub    %r15,%rbp
  4012f8:	48 83 ec 08          	sub    $0x8,%rsp
  4012fc:	e8 ff fc ff ff       	call   401000 <_init>
  401301:	48 c1 fd 03          	sar    $0x3,%rbp
  401305:	74 1f                	je     401326 <__libc_csu_init+0x56>
  401307:	31 db                	xor    %ebx,%ebx
  401309:	0f 1f 80 00 00 00 00 	nopl   0x0(%rax)
  401310:	4c 89 f2             	mov    %r14,%rdx
  401313:	4c 89 ee             	mov    %r13,%rsi
  401316:	44 89 e7             	mov    %r12d,%edi
  401319:	41 ff 14 df          	call   *(%r15,%rbx,8)
  40131d:	48 83 c3 01          	add    $0x1,%rbx
  401321:	48 39 dd             	cmp    %rbx,%rbp
  401324:	75 ea                	jne    401310 <__libc_csu_init+0x40>
  401326:	48 83 c4 08          	add    $0x8,%rsp
  40132a:	5b                   	pop    %rbx
  40132b:	5d                   	pop    %rbp
  40132c:	41 5c                	pop    %r12
  40132e:	41 5d                	pop    %r13
  401330:	41 5e                	pop    %r14
  401332:	41 5f                	pop    %r15
  401334:	c3                   	ret
  401335:	66 66 2e 0f 1f 84 00 	data16 cs nopw 0x0(%rax,%rax,1)
  40133c:	00 00 00 00 

0000000000401340 <__libc_csu_fini>:
  401340:	f3 0f 1e fa          	endbr64
  401344:	c3                   	ret

Disassembly of section .fini:

0000000000401348 <_fini>:
  401348:	f3 0f 1e fa          	endbr64
  40134c:	48 83 ec 08          	sub    $0x8,%rsp
  401350:	48 83 c4 08          	add    $0x8,%rsp
  401354:	c3                   	ret
